; Function Attrs: nounwind uwtable
define range(i32 0, 2) i32 @ossl_quic_wire_peek_frame_ack_num_ranges(ptr noundef readonly captures(none) %0, ptr noundef writeonly captures(none) %1) local_unnamed_addr #2 {
  %.sroa.0.0.copyload = load ptr, ptr %0, align 8, !tbaa !33
  %.sroa.17.0..sroa_idx = getelementptr inbounds nuw i8, ptr %0, i64 8
  %.sroa.17.0.copyload = load i64, ptr %.sroa.17.0..sroa_idx, align 8, !tbaa !56
  %3 = icmp eq i64 %.sroa.17.0.copyload, 0
  br i1 %3, label %expect_frame_header_mask.exit.thread, label %4

4:                                                ; preds = %2
  %5 = load i8, ptr %.sroa.0.0.copyload, align 1, !tbaa !55
  %6 = lshr i8 %5, 6
  %7 = zext nneg i8 %6 to i32
  %8 = shl nuw nsw i32 1, %7
  %9 = zext nneg i32 %8 to i64
  %10 = icmp ult i64 %.sroa.17.0.copyload, %9
  br i1 %10, label %expect_frame_header_mask.exit.thread, label %11

11:                                               ; preds = %4
  %12 = tail call i64 @ossl_quic_vlint_decode_unchecked(ptr noundef nonnull %.sroa.0.0.copyload) #12
  %13 = getelementptr inbounds nuw i8, ptr %.sroa.0.0.copyload, i64 %9
  %14 = sub nuw i64 %.sroa.17.0.copyload, %9
  %15 = and i64 %12, -2
  %.not6.i = icmp ne i64 %15, 2
  %16 = icmp eq i64 %.sroa.17.0.copyload, %9
  %or.cond = or i1 %16, %.not6.i
  br i1 %or.cond, label %expect_frame_header_mask.exit.thread, label %17

17:                                               ; preds = %11
  %18 = load i8, ptr %13, align 1, !tbaa !55
  %19 = lshr i8 %18, 6
  %20 = zext nneg i8 %19 to i32
  %21 = shl nuw nsw i32 1, %20
  %22 = zext nneg i32 %21 to i64
  %23 = icmp ult i64 %14, %22
  br i1 %23, label %expect_frame_header_mask.exit.thread, label %24

24:                                               ; preds = %17
  %25 = getelementptr inbounds nuw i8, ptr %13, i64 %22
  %26 = sub nuw i64 %14, %22
  %27 = icmp eq i64 %14, %22
  br i1 %27, label %expect_frame_header_mask.exit.thread, label %28

28:                                               ; preds = %24
  %29 = load i8, ptr %25, align 1, !tbaa !55
  %30 = lshr i8 %29, 6
  %31 = zext nneg i8 %30 to i32
  %32 = shl nuw nsw i32 1, %31
  %33 = zext nneg i32 %32 to i64
  %34 = icmp ult i64 %26, %33
  br i1 %34, label %expect_frame_header_mask.exit.thread, label %35

35:                                               ; preds = %28
  %36 = getelementptr inbounds nuw i8, ptr %25, i64 %33
  %37 = sub nuw i64 %26, %33
  %38 = icmp eq i64 %26, %33
  br i1 %38, label %expect_frame_header_mask.exit.thread, label %39

39:                                               ; preds = %35
  %40 = load i8, ptr %36, align 1, !tbaa !55
  %41 = lshr i8 %40, 6
  %42 = zext nneg i8 %41 to i32
  %43 = shl nuw nsw i32 1, %42
  %44 = zext nneg i32 %43 to i64
  %45 = icmp ult i64 %37, %44
  br i1 %45, label %expect_frame_header_mask.exit.thread, label %PACKET_get_quic_vlint.exit

PACKET_get_quic_vlint.exit:                       ; preds = %39
  %46 = tail call i64 @ossl_quic_vlint_decode_unchecked(ptr noundef nonnull %36) #12
  %.not = icmp eq i64 %46, 0
  br i1 %.not, label %._crit_edge, label %.lr.ph.preheader

.lr.ph.preheader:                                 ; preds = %PACKET_get_quic_vlint.exit
  %47 = sub nuw i64 %37, %44
  %48 = getelementptr inbounds nuw i8, ptr %36, i64 %44
  br label %.lr.ph

.lr.ph:                                           ; preds = %.lr.ph.preheader, %68
  %.065 = phi i64 [ %71, %68 ], [ 0, %.lr.ph.preheader ]
  %.sroa.0.064 = phi ptr [ %69, %68 ], [ %48, %.lr.ph.preheader ]
  %.sroa.17.063 = phi i64 [ %70, %68 ], [ %47, %.lr.ph.preheader ]
  %49 = icmp eq i64 %.sroa.17.063, 0
  br i1 %49, label %expect_frame_header_mask.exit.thread, label %50

50:                                               ; preds = %.lr.ph
  %51 = load i8, ptr %.sroa.0.064, align 1, !tbaa !55
  %52 = lshr i8 %51, 6
  %53 = zext nneg i8 %52 to i32
  %54 = shl nuw nsw i32 1, %53
  %55 = zext nneg i32 %54 to i64
  %56 = icmp ult i64 %.sroa.17.063, %55
  br i1 %56, label %expect_frame_header_mask.exit.thread, label %57

57:                                               ; preds = %50
  %58 = getelementptr inbounds nuw i8, ptr %.sroa.0.064, i64 %55
  %59 = sub nuw i64 %.sroa.17.063, %55
  %60 = icmp eq i64 %.sroa.17.063, %55
  br i1 %60, label %expect_frame_header_mask.exit.thread, label %61

61:                                               ; preds = %57
  %62 = load i8, ptr %58, align 1, !tbaa !55
  %63 = lshr i8 %62, 6
  %64 = zext nneg i8 %63 to i32
  %65 = shl nuw nsw i32 1, %64
  %66 = zext nneg i32 %65 to i64
  %67 = icmp ult i64 %59, %66
  br i1 %67, label %expect_frame_header_mask.exit.thread, label %68

68:                                               ; preds = %61
  %69 = getelementptr inbounds nuw i8, ptr %58, i64 %66
  %70 = sub nuw i64 %59, %66
  %71 = add nuw i64 %.065, 1
  %exitcond.not = icmp eq i64 %71, %46
  br i1 %exitcond.not, label %._crit_edge, label %.lr.ph, !llvm.loop !58

._crit_edge:                                      ; preds = %68, %PACKET_get_quic_vlint.exit
  %72 = add i64 %46, 1
  store i64 %72, ptr %1, align 8, !tbaa !56
  br label %expect_frame_header_mask.exit.thread

expect_frame_header_mask.exit.thread:             ; preds = %61, %57, %50, %.lr.ph, %39, %35, %28, %24, %17, %4, %2, %11, %._crit_edge
  %.04 = phi i32 [ 1, %._crit_edge ], [ 0, %11 ], [ 0, %2 ], [ 0, %4 ], [ 0, %17 ], [ 0, %24 ], [ 0, %28 ], [ 0, %35 ], [ 0, %39 ], [ 0, %.lr.ph ], [ 0, %50 ], [ 0, %57 ], [ 0, %61 ]
  ret i32 %.04
}